target datalayout = "e-m:e-p270:32:32-p271:32:32-p272:64:64-i64:64-i128:128-f80:128-n8:16:32:64-S128"
target triple = "x86_64-pc-linux-gnu"

%struct.AVFormatContext = type { ptr, ptr, ptr, ptr, ptr, i32, i32, ptr, i32, ptr, i32, ptr, ptr, i64, i64, i64, i32, i32, i32, i64, i64, ptr, i32, i32, ptr, i32, i32, i32, i32, ptr, i64, i32, i32, %struct.AVIOInterruptCB, i32, i32, i32, i32, i64, i32, i32, i32, i32, i32, i32, i32, i32, i32, i32, i32, i32, i64, i32, i32, i32, i32, i32, ptr, ptr, ptr, ptr, i32, ptr, ptr, ptr, ptr, i32, ptr, ptr, i64, ptr, ptr, ptr, i64 }
%struct.AVIOInterruptCB = type { ptr, ptr }
%struct.CdataDemuxContext = type { i32, i32 }
%struct.AVPacket = type { ptr, i64, i64, ptr, i32, i32, i32, ptr, i32, i64, i64, ptr, ptr, %struct.AVRational }
%struct.AVRational = type { i32, i32 }

; Function Attrs: nounwind uwtable
define internal i32 @cdata_read_packet(ptr noundef %0, ptr noundef %1) #0 {
  %3 = alloca i32, align 4
  %4 = alloca ptr, align 8
  %5 = alloca ptr, align 8
  %6 = alloca ptr, align 8
  %7 = alloca i32, align 4
  %8 = alloca i32, align 4
  %9 = alloca i32, align 4
  store ptr %0, ptr %4, align 8, !tbaa !15
  store ptr %1, ptr %5, align 8, !tbaa !60
  call void @llvm.lifetime.start.p0(i64 8, ptr %6) #5
  %10 = load ptr, ptr %4, align 8, !tbaa !15
  %11 = getelementptr inbounds nuw %struct.AVFormatContext, ptr %10, i32 0, i32 3
  %12 = load ptr, ptr %11, align 8, !tbaa !17
  store ptr %12, ptr %6, align 8, !tbaa !32
  call void @llvm.lifetime.start.p0(i64 4, ptr %7) #5
  %13 = load ptr, ptr %6, align 8, !tbaa !32
  %14 = getelementptr inbounds nuw %struct.CdataDemuxContext, ptr %13, i32 0, i32 0
  %15 = load i32, ptr %14, align 4, !tbaa !43
  %16 = mul i32 76, %15
  store i32 %16, ptr %7, align 4, !tbaa !36
  call void @llvm.lifetime.start.p0(i64 4, ptr %8) #5
  %17 = load ptr, ptr %4, align 8, !tbaa !15
  %18 = getelementptr inbounds nuw %struct.AVFormatContext, ptr %17, i32 0, i32 4
  %19 = load ptr, ptr %18, align 8, !tbaa !34
  %20 = load ptr, ptr %5, align 8, !tbaa !60
  %21 = load i32, ptr %7, align 4, !tbaa !36
  %22 = call i32 @av_get_packet(ptr noundef %19, ptr noundef %20, i32 noundef %21)
  store i32 %22, ptr %8, align 4, !tbaa !36
  %23 = load i32, ptr %8, align 4, !tbaa !36
  %24 = icmp slt i32 %23, 0
  br i1 %24, label %25, label %27

25:                                               ; preds = %2
  %26 = load i32, ptr %8, align 4, !tbaa !36
  store i32 %26, ptr %3, align 4
  store i32 1, ptr %9, align 4
  br label %35

27:                                               ; preds = %2
  %28 = load ptr, ptr %6, align 8, !tbaa !32
  %29 = getelementptr inbounds nuw %struct.CdataDemuxContext, ptr %28, i32 0, i32 1
  %30 = load i32, ptr %29, align 4, !tbaa !59
  %31 = add i32 %30, 1
  store i32 %31, ptr %29, align 4, !tbaa !59
  %32 = zext i32 %30 to i64
  %33 = load ptr, ptr %5, align 8, !tbaa !60
  %34 = getelementptr inbounds nuw %struct.AVPacket, ptr %33, i32 0, i32 1
  store i64 %32, ptr %34, align 8, !tbaa !62
  store i32 0, ptr %3, align 4
  store i32 1, ptr %9, align 4
  br label %35

35:                                               ; preds = %27, %25
  call void @llvm.lifetime.end.p0(i64 4, ptr %8) #5
  call void @llvm.lifetime.end.p0(i64 4, ptr %7) #5
  call void @llvm.lifetime.end.p0(i64 8, ptr %6) #5
  %36 = load i32, ptr %3, align 4
  ret i32 %36
}