; Function Attrs: nounwind uwtable
define internal range(i32 -2147483648, 1) i32 @cdata_read_packet(ptr noundef readonly captures(none) %0, ptr noundef %1) #1 {
  %3 = getelementptr inbounds nuw i8, ptr %0, i64 24
  %4 = load ptr, ptr %3, align 8, !tbaa !12
  %5 = load i32, ptr %4, align 4, !tbaa !28
  %6 = mul i32 %5, 76
  %7 = getelementptr inbounds nuw i8, ptr %0, i64 32
  %8 = load ptr, ptr %7, align 8, !tbaa !27
  %9 = tail call i32 @av_get_packet(ptr noundef %8, ptr noundef %1, i32 noundef %6) #4
  %10 = icmp slt i32 %9, 0
  br i1 %10, label %17, label %11

11:                                               ; preds = %2
  %12 = getelementptr inbounds nuw i8, ptr %4, i64 4
  %13 = load i32, ptr %12, align 4, !tbaa !45
  %14 = add i32 %13, 1
  store i32 %14, ptr %12, align 4, !tbaa !45
  %15 = zext i32 %13 to i64
  %16 = getelementptr inbounds nuw i8, ptr %1, i64 8
  store i64 %15, ptr %16, align 8, !tbaa !46
  br label %17

17:                                               ; preds = %2, %11
  %.0 = phi i32 [ 0, %11 ], [ %9, %2 ]
  ret i32 %.0
}